target datalayout = "e-m:e-p270:32:32-p271:32:32-p272:64:64-i64:64-i128:128-f80:128-n8:16:32:64-S128"
target triple = "x86_64-pc-linux-gnu"

%struct._spdu_dlt_mapping = type { ptr, i32, i32 }

@spdu_dlt_mapping = internal global ptr null, align 8
@spdu_dlt_mapping_num = internal global i32 0, align 4
@data_spdu_dlt_mappings = internal global ptr null, align 8

; Function Attrs: null_pointer_is_valid sspstrong uwtable
define internal void @post_update_spdu_dlt_mapping_cb() #0 {
  %1 = alloca i32, align 4
  %2 = alloca ptr, align 8
  %3 = alloca i64, align 8
  %4 = alloca i64, align 8
  %5 = alloca ptr, align 8
  %6 = alloca ptr, align 8
  %7 = load ptr, ptr @data_spdu_dlt_mappings, align 8
  %8 = icmp ne ptr %7, null
  br i1 %8, label %9, label %11

9:                                                ; preds = %0
  %10 = load ptr, ptr @data_spdu_dlt_mappings, align 8
  call void @g_hash_table_destroy(ptr noundef %10)
  br label %11

11:                                               ; preds = %9, %0
  %12 = call ptr @g_hash_table_new_full(ptr noundef @g_int64_hash, ptr noundef @g_int64_equal, ptr noundef @g_free, ptr noundef null)
  store ptr %12, ptr @data_spdu_dlt_mappings, align 8
  call void @llvm.lifetime.start.p0(i64 4, ptr %1) #14
  store i32 0, ptr %1, align 4
  br label %13

13:                                               ; preds = %73, %11
  %14 = load i32, ptr %1, align 4
  %15 = load i32, ptr @spdu_dlt_mapping_num, align 4
  %16 = icmp ult i32 %14, %15
  br i1 %16, label %18, label %17

17:                                               ; preds = %13
  call void @llvm.lifetime.end.p0(i64 4, ptr %1) #14
  br label %76

18:                                               ; preds = %13
  call void @llvm.lifetime.start.p0(i64 8, ptr %2) #14
  call void @llvm.lifetime.start.p0(i64 8, ptr %3) #14
  store i64 1, ptr %3, align 8
  call void @llvm.lifetime.start.p0(i64 8, ptr %4) #14
  store i64 8, ptr %4, align 8
  call void @llvm.lifetime.start.p0(i64 8, ptr %5) #14
  %19 = load i64, ptr %4, align 8
  %20 = icmp eq i64 %19, 1
  br i1 %20, label %21, label %24

21:                                               ; preds = %18
  %22 = load i64, ptr %3, align 8
  %23 = call noalias ptr @g_malloc(i64 noundef %22) #16
  store ptr %23, ptr %5, align 8
  br label %45

24:                                               ; preds = %18
  %25 = load i64, ptr %3, align 8
  %26 = call i1 @llvm.is.constant.i64(i64 %25)
  br i1 %26, label %27, label %40

27:                                               ; preds = %24
  %28 = load i64, ptr %4, align 8
  %29 = icmp eq i64 %28, 0
  br i1 %29, label %35, label %30

30:                                               ; preds = %27
  %31 = load i64, ptr %3, align 8
  %32 = load i64, ptr %4, align 8
  %33 = udiv i64 -1, %32
  %34 = icmp ule i64 %31, %33
  br i1 %34, label %35, label %40

35:                                               ; preds = %30, %27
  %36 = load i64, ptr %3, align 8
  %37 = load i64, ptr %4, align 8
  %38 = mul i64 %36, %37
  %39 = call noalias ptr @g_malloc(i64 noundef %38) #16
  store ptr %39, ptr %5, align 8
  br label %44

40:                                               ; preds = %30, %24
  %41 = load i64, ptr %3, align 8
  %42 = load i64, ptr %4, align 8
  %43 = call noalias ptr @g_malloc_n(i64 noundef %41, i64 noundef %42) #17
  store ptr %43, ptr %5, align 8
  br label %44

44:                                               ; preds = %40, %35
  br label %45

45:                                               ; preds = %44, %21
  %46 = load ptr, ptr %5, align 8
  store ptr %46, ptr %6, align 8
  call void @llvm.lifetime.end.p0(i64 8, ptr %5) #14
  call void @llvm.lifetime.end.p0(i64 8, ptr %4) #14
  call void @llvm.lifetime.end.p0(i64 8, ptr %3) #14
  %47 = load ptr, ptr %6, align 8
  store ptr %47, ptr %2, align 8
  %48 = load ptr, ptr @spdu_dlt_mapping, align 8
  %49 = load i32, ptr %1, align 4
  %50 = zext i32 %49 to i64
  %51 = getelementptr %struct._spdu_dlt_mapping, ptr %48, i64 %50
  %52 = getelementptr inbounds nuw %struct._spdu_dlt_mapping, ptr %51, i32 0, i32 1
  %53 = load i32, ptr %52, align 8
  %54 = zext i32 %53 to i64
  %55 = load ptr, ptr @spdu_dlt_mapping, align 8
  %56 = load i32, ptr %1, align 4
  %57 = zext i32 %56 to i64
  %58 = getelementptr %struct._spdu_dlt_mapping, ptr %55, i64 %57
  %59 = getelementptr inbounds nuw %struct._spdu_dlt_mapping, ptr %58, i32 0, i32 0
  %60 = load ptr, ptr %59, align 8
  %61 = call i32 @dlt_ecu_id_to_int32(ptr noundef %60)
  %62 = sext i32 %61 to i64
  %63 = shl i64 %62, 32
  %64 = or i64 %54, %63
  %65 = load ptr, ptr %2, align 8
  store i64 %64, ptr %65, align 8
  %66 = load ptr, ptr @data_spdu_dlt_mappings, align 8
  %67 = load ptr, ptr %2, align 8
  %68 = load ptr, ptr @spdu_dlt_mapping, align 8
  %69 = load i32, ptr %1, align 4
  %70 = zext i32 %69 to i64
  %71 = getelementptr %struct._spdu_dlt_mapping, ptr %68, i64 %70
  %72 = call i32 @g_hash_table_insert(ptr noundef %66, ptr noundef %67, ptr noundef %71)
  call void @llvm.lifetime.end.p0(i64 8, ptr %2) #14
  br label %73

73:                                               ; preds = %45
  %74 = load i32, ptr %1, align 4
  %75 = add i32 %74, 1
  store i32 %75, ptr %1, align 4
  br label %13, !llvm.loop !16

76:                                               ; preds = %17
  ret void
}