; Function Attrs: null_pointer_is_valid sspstrong uwtable
define internal void @post_update_spdu_dlt_mapping_cb() #0 {
  %1 = load ptr, ptr @data_spdu_dlt_mappings, align 8
  %.not = icmp eq ptr %1, null
  br i1 %.not, label %3, label %2

2:                                                ; preds = %0
  tail call void @g_hash_table_destroy(ptr noundef nonnull %1)
  br label %3

3:                                                ; preds = %2, %0
  %4 = tail call ptr @g_hash_table_new_full(ptr noundef nonnull @g_int64_hash, ptr noundef nonnull @g_int64_equal, ptr noundef nonnull @g_free, ptr noundef null)
  store ptr %4, ptr @data_spdu_dlt_mappings, align 8
  %5 = load i32, ptr @spdu_dlt_mapping_num, align 4
  %.not21 = icmp eq i32 %5, 0
  br i1 %.not21, label %._crit_edge, label %.lr.ph

._crit_edge:                                      ; preds = %.lr.ph, %3
  ret void

.lr.ph:                                           ; preds = %3, %.lr.ph
  %indvars.iv = phi i64 [ %indvars.iv.next, %.lr.ph ], [ 0, %3 ]
  %6 = tail call noalias dereferenceable_or_null(8) ptr @g_malloc(i64 noundef 8) #18
  %7 = load ptr, ptr @spdu_dlt_mapping, align 8
  %8 = getelementptr %struct._spdu_dlt_mapping, ptr %7, i64 %indvars.iv
  %9 = getelementptr inbounds nuw i8, ptr %8, i64 8
  %10 = load i32, ptr %9, align 8
  %11 = zext i32 %10 to i64
  %12 = load ptr, ptr %8, align 8
  %13 = tail call i32 @dlt_ecu_id_to_int32(ptr noundef %12)
  %14 = sext i32 %13 to i64
  %15 = shl nsw i64 %14, 32
  %16 = or disjoint i64 %15, %11
  store i64 %16, ptr %6, align 8
  %17 = load ptr, ptr @data_spdu_dlt_mappings, align 8
  %18 = load ptr, ptr @spdu_dlt_mapping, align 8
  %19 = getelementptr %struct._spdu_dlt_mapping, ptr %18, i64 %indvars.iv
  %20 = tail call i32 @g_hash_table_insert(ptr noundef %17, ptr noundef %6, ptr noundef %19)
  %indvars.iv.next = add nuw nsw i64 %indvars.iv, 1
  %21 = load i32, ptr @spdu_dlt_mapping_num, align 4
  %22 = zext i32 %21 to i64
  %23 = icmp samesign ult i64 %indvars.iv.next, %22
  br i1 %23, label %.lr.ph, label %._crit_edge, !llvm.loop !25
}